; Function Attrs: nofree nounwind uwtable
define i32 @stb_vorbis_get_file_offset(ptr noundef readonly captures(none) %0) local_unnamed_addr #17 {
  %2 = getelementptr inbounds nuw i8, ptr %0, i64 92
  %3 = load i8, ptr %2, align 4, !tbaa !63
  %.not = icmp eq i8 %3, 0
  br i1 %.not, label %4, label %22

4:                                                ; preds = %1
  %5 = getelementptr inbounds nuw i8, ptr %0, i64 64
  %6 = load ptr, ptr %5, align 8, !tbaa !59
  %.not7 = icmp eq ptr %6, null
  br i1 %.not7, label %14, label %7

7:                                                ; preds = %4
  %8 = getelementptr inbounds nuw i8, ptr %0, i64 72
  %9 = load ptr, ptr %8, align 8, !tbaa !64
  %10 = ptrtoint ptr %6 to i64
  %11 = ptrtoint ptr %9 to i64
  %12 = sub i64 %10, %11
  %13 = trunc i64 %12 to i32
  br label %22

14:                                               ; preds = %4
  %15 = getelementptr inbounds nuw i8, ptr %0, i64 48
  %16 = load ptr, ptr %15, align 8, !tbaa !62
  %17 = tail call i64 @ftell(ptr noundef %16)
  %18 = getelementptr inbounds nuw i8, ptr %0, i64 56
  %19 = load i32, ptr %18, align 8, !tbaa !65
  %20 = trunc i64 %17 to i32
  %21 = sub i32 %20, %19
  br label %22

22:                                               ; preds = %1, %14, %7
  %.0 = phi i32 [ %13, %7 ], [ %21, %14 ], [ 0, %1 ]
  ret i32 %.0
}